#include <math.h>
#include <stdio.h>
#include <stdlib.h>
#include <string.h>
#include <iostream>
using namespace std;

int main()
{
	int a,b,c,d,e;
	for (a=3 ; a<=5 ; a++)
		for (b=1 ; b<=5 ; b++)
		{
			if (a!=b)
			{
				for (c=1 ; c<=5 ; c++)
				{
					if (c!=a && c!=b)
					{
						for (d=2 ; d<=5 ; d++)
						{
							if (d!=a && d!=b && d!=c)
							{
								e=15-a-b-c-d;
								if (e!=1 && b==2 && a==5 && c==1 && d!=1 && e!=2 && e!=3)
									cout<<a<<" "<<b<<" "<<c<<" "<<d<<" "<<e;
							}
						}
					}
				}
			}
		}
		return 0;
}